; Function Attrs: mustprogress nofree norecurse nosync nounwind willreturn memory(read, inaccessiblemem: none) uwtable
define noundef ptr @_ZNK6icu_7511MeasureUnit13getIdentifierEv(ptr nocapture noundef nonnull readonly align 8 dereferenceable(19) %this) local_unnamed_addr #11 align 2 {
entry:
  %fImpl = getelementptr inbounds i8, ptr %this, i64 8
  %0 = load ptr, ptr %fImpl, align 8
  %tobool.not = icmp eq ptr %0, null
  br i1 %tobool.not, label %cond.false, label %cond.true

cond.true:                                        ; preds = %entry
  %identifier = getelementptr inbounds i8, ptr %0, i64 96
  br label %cond.end

cond.false:                                       ; preds = %entry
  %fTypeId.i = getelementptr inbounds i8, ptr %this, i64 18
  %1 = load i8, ptr %fTypeId.i, align 2
  %cmp.i = icmp slt i8 %1, 0
  br i1 %cmp.i, label %_ZNK6icu_7511MeasureUnit9getOffsetEv.exit, label %lor.lhs.false.i

lor.lhs.false.i:                                  ; preds = %cond.false
  %fSubTypeId.i = getelementptr inbounds i8, ptr %this, i64 16
  %2 = load i16, ptr %fSubTypeId.i, align 8
  %cmp3.i = icmp slt i16 %2, 0
  br i1 %cmp3.i, label %_ZNK6icu_7511MeasureUnit9getOffsetEv.exit, label %if.end.i

if.end.i:                                         ; preds = %lor.lhs.false.i
  %conv2.i = zext nneg i16 %2 to i32
  %idxprom.i = zext nneg i8 %1 to i64
  %arrayidx.i = getelementptr inbounds [24 x i32], ptr @_ZN6icu_75L8gOffsetsE, i64 0, i64 %idxprom.i
  %3 = load i32, ptr %arrayidx.i, align 4
  %add.i = add nsw i32 %3, %conv2.i
  %4 = sext i32 %add.i to i64
  br label %_ZNK6icu_7511MeasureUnit9getOffsetEv.exit

_ZNK6icu_7511MeasureUnit9getOffsetEv.exit:        ; preds = %cond.false, %lor.lhs.false.i, %if.end.i
  %retval.0.i = phi i64 [ %4, %if.end.i ], [ -1, %lor.lhs.false.i ], [ -1, %cond.false ]
  %arrayidx = getelementptr inbounds [492 x ptr], ptr @_ZN6icu_75L9gSubTypesE, i64 0, i64 %retval.0.i
  br label %cond.end

cond.end:                                         ; preds = %_ZNK6icu_7511MeasureUnit9getOffsetEv.exit, %cond.true
  %cond.in = phi ptr [ %identifier, %cond.true ], [ %arrayidx, %_ZNK6icu_7511MeasureUnit9getOffsetEv.exit ]
  %cond = load ptr, ptr %cond.in, align 8
  ret ptr %cond
}